; ModuleID = 'source-C-CXX/61/2847.c'
source_filename = "source-C-CXX/61/2847.c"
target datalayout = "e-m:e-p270:32:32-p271:32:32-p272:64:64-i64:64-f80:128-n8:16:32:64-S128"
target triple = "x86_64-pc-linux-gnu"

@.str = private unnamed_addr constant [3 x i8] c"%s\00", align 1

; Function Attrs: nounwind sspstrong uwtable
define dso_local void @main() local_unnamed_addr #0 {
  %1 = alloca [2000 x i8], align 16
  %2 = alloca [2000 x i8], align 16
  %3 = getelementptr inbounds [2000 x i8], [2000 x i8]* %1, i64 0, i64 0
  call void @llvm.lifetime.start.p0i8(i64 2000, i8* nonnull %3) #5
  %4 = getelementptr inbounds [2000 x i8], [2000 x i8]* %2, i64 0, i64 0
  call void @llvm.lifetime.start.p0i8(i64 2000, i8* nonnull %4) #5
  %5 = call i32 (i8*, ...) bitcast (i32 (...)* @gets to i32 (i8*, ...)*)(i8* nonnull %3) #5
  %6 = call i64 @strlen(i8* noundef nonnull %3) #6
  %7 = trunc i64 %6 to i32
  %8 = icmp sgt i32 %7, 0
  br i1 %8, label %9, label %34

9:                                                ; preds = %0
  %10 = and i64 %6, 4294967295
  br label %11

11:                                               ; preds = %9, %29
  %12 = phi i64 [ 0, %9 ], [ %32, %29 ]
  %13 = phi i32 [ undef, %9 ], [ %31, %29 ]
  %14 = phi i32 [ 0, %9 ], [ %30, %29 ]
  %15 = getelementptr inbounds [2000 x i8], [2000 x i8]* %1, i64 0, i64 %12
  %16 = load i8, i8* %15, align 1, !tbaa !5
  %17 = icmp eq i8 %16, 32
  br i1 %17, label %22, label %18

18:                                               ; preds = %11
  %19 = sext i32 %14 to i64
  %20 = getelementptr inbounds [2000 x i8], [2000 x i8]* %2, i64 0, i64 %19
  store i8 %16, i8* %20, align 1, !tbaa !5
  %21 = add nsw i32 %14, 1
  br label %29

22:                                               ; preds = %11
  %23 = icmp slt i32 %13, 1
  br i1 %23, label %24, label %29

24:                                               ; preds = %22
  %25 = sext i32 %14 to i64
  %26 = getelementptr inbounds [2000 x i8], [2000 x i8]* %2, i64 0, i64 %25
  store i8 32, i8* %26, align 1, !tbaa !5
  %27 = add nsw i32 %14, 1
  %28 = add nsw i32 %13, 1
  br label %29

29:                                               ; preds = %22, %24, %18
  %30 = phi i32 [ %21, %18 ], [ %27, %24 ], [ %14, %22 ]
  %31 = phi i32 [ 0, %18 ], [ %28, %24 ], [ %13, %22 ]
  %32 = add nuw nsw i64 %12, 1
  %33 = icmp eq i64 %32, %10
  br i1 %33, label %34, label %11, !llvm.loop !8

34:                                               ; preds = %29, %0
  %35 = phi i32 [ 0, %0 ], [ %30, %29 ]
  %36 = sext i32 %35 to i64
  %37 = getelementptr inbounds [2000 x i8], [2000 x i8]* %2, i64 0, i64 %36
  store i8 0, i8* %37, align 1, !tbaa !5
  %38 = call i32 (i8*, ...) @printf(i8* nonnull dereferenceable(1) getelementptr inbounds ([3 x i8], [3 x i8]* @.str, i64 0, i64 0), i8* nonnull %4)
  call void @llvm.lifetime.end.p0i8(i64 2000, i8* nonnull %4) #5
  call void @llvm.lifetime.end.p0i8(i64 2000, i8* nonnull %3) #5
  ret void
}

; Function Attrs: argmemonly mustprogress nofree nosync nounwind willreturn
declare void @llvm.lifetime.start.p0i8(i64 immarg, i8* nocapture) #1

declare i32 @gets(...) local_unnamed_addr #2

; Function Attrs: argmemonly mustprogress nofree nounwind readonly willreturn
declare i64 @strlen(i8* nocapture) local_unnamed_addr #3

; Function Attrs: nofree nounwind
declare noundef i32 @printf(i8* nocapture noundef readonly, ...) local_unnamed_addr #4

; Function Attrs: argmemonly mustprogress nofree nosync nounwind willreturn
declare void @llvm.lifetime.end.p0i8(i64 immarg, i8* nocapture) #1


!llvm.module.flags = !{!0, !1, !2, !3}
!llvm.ident = !{!4}

!0 = !{i32 1, !"wchar_size", i32 4}
!1 = !{i32 7, !"PIC Level", i32 2}
!2 = !{i32 7, !"PIE Level", i32 2}
!3 = !{i32 7, !"uwtable", i32 1}
!4 = !{!"clang version 13.0.0"}
!5 = !{!6, !6, i64 0}
!6 = !{!"omnipotent char", !7, i64 0}
!7 = !{!"Simple C/C++ TBAA"}
!8 = distinct !{!8, !9}
!9 = !{!"llvm.loop.mustprogress"}
